target datalayout = "e-m:e-p270:32:32-p271:32:32-p272:64:64-i64:64-i128:128-f80:128-n8:16:32:64-S128"
target triple = "x86_64-pc-linux-gnu"

%class.EmitVStreamVisitor = type { %class.EmitVBaseVisitorConst, ptr }
%class.EmitVBaseVisitorConst = type { %class.EmitCBaseVisitorConst.base, i8, ptr, i8, i8, i8, %"class.std::deque" }
%class.EmitCBaseVisitorConst.base = type <{ %class.VNVisitorConst, ptr, ptr, i32, i8 }>
%class.VNVisitorConst = type { ptr }
%"class.std::deque" = type { %"class.std::_Deque_base" }
%"class.std::_Deque_base" = type { %"struct.std::_Deque_base<AstNodeArrayDType *, std::allocator<AstNodeArrayDType *>>::_Deque_impl" }
%"struct.std::_Deque_base<AstNodeArrayDType *, std::allocator<AstNodeArrayDType *>>::_Deque_impl" = type { %"struct.std::_Deque_base<AstNodeArrayDType *, std::allocator<AstNodeArrayDType *>>::_Deque_impl_data" }
%"struct.std::_Deque_base<AstNodeArrayDType *, std::allocator<AstNodeArrayDType *>>::_Deque_impl_data" = type { ptr, i64, %"struct.std::_Deque_iterator", %"struct.std::_Deque_iterator" }
%"struct.std::_Deque_iterator" = type { ptr, ptr, ptr, ptr }
%class.EmitCBaseVisitorConst = type <{ %class.VNVisitorConst, ptr, ptr, i32, i8, [3 x i8] }>

@_ZTV14VNVisitorConst = external unnamed_addr constant { [469 x ptr] }, align 8

; Function Attrs: mustprogress nounwind uwtable
define linkonce_odr dso_local void @_ZNSt15_Deque_iteratorIP17AstNodeArrayDTypeRS1_PS1_EC2Ev(ptr noundef nonnull align 8 dereferenceable(32) %0) unnamed_addr #8 comdat align 2 {
  %2 = alloca ptr, align 8
  store ptr %0, ptr %2, align 8, !tbaa !396
  %3 = load ptr, ptr %2, align 8
  %4 = getelementptr inbounds nuw %"struct.std::_Deque_iterator", ptr %3, i32 0, i32 0
  store ptr null, ptr %4, align 8, !tbaa !398
  %5 = getelementptr inbounds nuw %"struct.std::_Deque_iterator", ptr %3, i32 0, i32 1
  store ptr null, ptr %5, align 8, !tbaa !399
  %6 = getelementptr inbounds nuw %"struct.std::_Deque_iterator", ptr %3, i32 0, i32 2
  store ptr null, ptr %6, align 8, !tbaa !400
  %7 = getelementptr inbounds nuw %"struct.std::_Deque_iterator", ptr %3, i32 0, i32 3
  store ptr null, ptr %7, align 8, !tbaa !401
  ret void
}

; Function Attrs: mustprogress nounwind uwtable
define linkonce_odr dso_local void @_ZNSt15__new_allocatorIP17AstNodeArrayDTypeEC2Ev(ptr noundef nonnull align 1 dereferenceable(1) %0) unnamed_addr #8 comdat align 2 {
  %2 = alloca ptr, align 8
  store ptr %0, ptr %2, align 8, !tbaa !394
  ret void
}

; Function Attrs: mustprogress nounwind uwtable
define linkonce_odr dso_local void @_ZNSt11_Deque_baseIP17AstNodeArrayDTypeSaIS1_EE16_Deque_impl_dataC2Ev(ptr noundef nonnull align 8 dereferenceable(80) %0) unnamed_addr #8 comdat align 2 {
  %2 = alloca ptr, align 8
  store ptr %0, ptr %2, align 8, !tbaa !392
  %3 = load ptr, ptr %2, align 8
  %4 = getelementptr inbounds nuw %"struct.std::_Deque_base<AstNodeArrayDType *, std::allocator<AstNodeArrayDType *>>::_Deque_impl_data", ptr %3, i32 0, i32 0
  store ptr null, ptr %4, align 8, !tbaa !384
  %5 = getelementptr inbounds nuw %"struct.std::_Deque_base<AstNodeArrayDType *, std::allocator<AstNodeArrayDType *>>::_Deque_impl_data", ptr %3, i32 0, i32 1
  store i64 0, ptr %5, align 8, !tbaa !383
  %6 = getelementptr inbounds nuw %"struct.std::_Deque_base<AstNodeArrayDType *, std::allocator<AstNodeArrayDType *>>::_Deque_impl_data", ptr %3, i32 0, i32 2
  call void @_ZNSt15_Deque_iteratorIP17AstNodeArrayDTypeRS1_PS1_EC2Ev(ptr noundef nonnull align 8 dereferenceable(32) %6) #3
  %7 = getelementptr inbounds nuw %"struct.std::_Deque_base<AstNodeArrayDType *, std::allocator<AstNodeArrayDType *>>::_Deque_impl_data", ptr %3, i32 0, i32 3
  call void @_ZNSt15_Deque_iteratorIP17AstNodeArrayDTypeRS1_PS1_EC2Ev(ptr noundef nonnull align 8 dereferenceable(32) %7) #3
  ret void
}

; Function Attrs: mustprogress nounwind uwtable
define linkonce_odr dso_local void @_ZNSaIP17AstNodeArrayDTypeEC2Ev(ptr noundef nonnull align 1 dereferenceable(1) %0) unnamed_addr #8 comdat align 2 {
  %2 = alloca ptr, align 8
  store ptr %0, ptr %2, align 8, !tbaa !390
  %3 = load ptr, ptr %2, align 8
  call void @_ZNSt15__new_allocatorIP17AstNodeArrayDTypeEC2Ev(ptr noundef nonnull align 1 dereferenceable(1) %3) #3
  ret void
}

; Function Attrs: mustprogress nounwind uwtable
define linkonce_odr dso_local void @_ZNSt15__new_allocatorIP17AstNodeArrayDTypeED2Ev(ptr noundef nonnull align 1 dereferenceable(1) %0) unnamed_addr #8 comdat align 2 {
  %2 = alloca ptr, align 8
  store ptr %0, ptr %2, align 8, !tbaa !394
  ret void
}

; Function Attrs: mustprogress nounwind uwtable
define linkonce_odr dso_local void @_ZNSt11_Deque_baseIP17AstNodeArrayDTypeSaIS1_EE11_Deque_implC2Ev(ptr noundef nonnull align 8 dereferenceable(80) %0) unnamed_addr #8 comdat align 2 {
  %2 = alloca ptr, align 8
  store ptr %0, ptr %2, align 8, !tbaa !380
  %3 = load ptr, ptr %2, align 8
  call void @_ZNSaIP17AstNodeArrayDTypeEC2Ev(ptr noundef nonnull align 1 dereferenceable(1) %3) #3
  call void @_ZNSt11_Deque_baseIP17AstNodeArrayDTypeSaIS1_EE16_Deque_impl_dataC2Ev(ptr noundef nonnull align 8 dereferenceable(80) %3) #3
  ret void
}

; Function Attrs: mustprogress uwtable
define linkonce_odr dso_local void @_ZNSt11_Deque_baseIP17AstNodeArrayDTypeSaIS1_EEC2Ev(ptr noundef nonnull align 8 dereferenceable(80) %0) unnamed_addr #4 comdat align 2 personality ptr @__gxx_personality_v0 {
  %2 = alloca ptr, align 8
  %3 = alloca ptr, align 8
  %4 = alloca i32, align 4
  store ptr %0, ptr %2, align 8, !tbaa !378
  %5 = load ptr, ptr %2, align 8
  %6 = getelementptr inbounds nuw %"class.std::_Deque_base", ptr %5, i32 0, i32 0
  call void @_ZNSt11_Deque_baseIP17AstNodeArrayDTypeSaIS1_EE11_Deque_implC2Ev(ptr noundef nonnull align 8 dereferenceable(80) %6) #3
  invoke void @_ZNSt11_Deque_baseIP17AstNodeArrayDTypeSaIS1_EE17_M_initialize_mapEm(ptr noundef nonnull align 8 dereferenceable(80) %5, i64 noundef 0)
          to label %7 unwind label %8

7:                                                ; preds = %1
  ret void

8:                                                ; preds = %1
  %9 = landingpad { ptr, i32 }
          cleanup
  %10 = extractvalue { ptr, i32 } %9, 0
  store ptr %10, ptr %3, align 8
  %11 = extractvalue { ptr, i32 } %9, 1
  store i32 %11, ptr %4, align 4
  call void @_ZNSt15__new_allocatorIP17AstNodeArrayDTypeED2Ev(ptr noundef nonnull align 8 dereferenceable(80) %6) #3
  br label %12

12:                                               ; preds = %8
  %13 = load ptr, ptr %3, align 8
  %14 = load i32, ptr %4, align 4
  %15 = insertvalue { ptr, i32 } poison, ptr %13, 0
  %16 = insertvalue { ptr, i32 } %15, i32 %14, 1
  resume { ptr, i32 } %16
}

; Function Attrs: inlinehint mustprogress nounwind uwtable
define linkonce_odr dso_local void @_ZN14VNVisitorConstC2Ev(ptr noundef nonnull align 8 dereferenceable(8) %0) unnamed_addr #9 comdat align 2 {
  %2 = alloca ptr, align 8
  store ptr %0, ptr %2, align 8, !tbaa !133
  %3 = load ptr, ptr %2, align 8
  store ptr getelementptr inbounds inrange(-16, 3736) ({ [469 x ptr] }, ptr @_ZTV14VNVisitorConst, i32 0, i32 0, i32 2), ptr %3, align 8, !tbaa !13
  ret void
}

; Function Attrs: mustprogress nounwind uwtable
define linkonce_odr dso_local void @_ZN14VNVisitorConstD2Ev(ptr noundef nonnull align 8 dereferenceable(8) %0) unnamed_addr #8 comdat align 2 {
  %2 = alloca ptr, align 8
  store ptr %0, ptr %2, align 8, !tbaa !133
  ret void
}

; Function Attrs: mustprogress uwtable
define linkonce_odr dso_local void @_ZNSt5dequeIP17AstNodeArrayDTypeSaIS1_EEC2Ev(ptr noundef nonnull align 8 dereferenceable(80) %0) unnamed_addr #4 comdat align 2 {
  %2 = alloca ptr, align 8
  store ptr %0, ptr %2, align 8, !tbaa !376
  %3 = load ptr, ptr %2, align 8
  call void @_ZNSt11_Deque_baseIP17AstNodeArrayDTypeSaIS1_EEC2Ev(ptr noundef nonnull align 8 dereferenceable(80) %3)
  ret void
}

; Function Attrs: mustprogress nounwind uwtable
define linkonce_odr dso_local void @_ZN21EmitCBaseVisitorConstC2Ev(ptr noundef nonnull align 8 dereferenceable(29) %0) unnamed_addr #8 comdat align 2 {
  %2 = alloca ptr, align 8
  store ptr %0, ptr %2, align 8, !tbaa !372
  %3 = load ptr, ptr %2, align 8
  call void @_ZN14VNVisitorConstC2Ev(ptr noundef nonnull align 8 dereferenceable(8) %3) #3
  store ptr getelementptr inbounds inrange(-16, 3736) ({ [469 x ptr] }, ptr @_ZTV21EmitCBaseVisitorConst, i32 0, i32 0, i32 2), ptr %3, align 8, !tbaa !13
  %4 = getelementptr inbounds nuw %class.EmitCBaseVisitorConst, ptr %3, i32 0, i32 1
  store ptr null, ptr %4, align 8, !tbaa !99
  %5 = getelementptr inbounds nuw %class.EmitCBaseVisitorConst, ptr %3, i32 0, i32 2
  store ptr null, ptr %5, align 8, !tbaa !374
  %6 = getelementptr inbounds nuw %class.EmitCBaseVisitorConst, ptr %3, i32 0, i32 3
  store i32 0, ptr %6, align 8, !tbaa !375
  %7 = getelementptr inbounds nuw %class.EmitCBaseVisitorConst, ptr %3, i32 0, i32 4
  store i8 0, ptr %7, align 4, !tbaa !104
  ret void
}

; Function Attrs: inlinehint mustprogress uwtable
define linkonce_odr dso_local void @_ZN14VNVisitorConst12iterateConstEP7AstNode(ptr noundef nonnull align 8 dereferenceable(8) %0, ptr noundef %1) #6 comdat align 2 {
  %3 = alloca ptr, align 8
  %4 = alloca ptr, align 8
  store ptr %0, ptr %3, align 8, !tbaa !133
  store ptr %1, ptr %4, align 8, !tbaa !4
  %5 = load ptr, ptr %3, align 8
  %6 = load ptr, ptr %4, align 8, !tbaa !4
  %7 = load ptr, ptr %6, align 8, !tbaa !13
  %8 = getelementptr inbounds ptr, ptr %7, i64 36
  %9 = load ptr, ptr %8, align 8
  call void %9(ptr noundef nonnull align 8 dereferenceable(152) %6, ptr noundef nonnull align 8 dereferenceable(8) %5)
  ret void
}

; Function Attrs: mustprogress uwtable
define linkonce_odr dso_local void @_ZN21EmitVBaseVisitorConstC2EbP10AstSenTree(ptr noundef nonnull align 8 dereferenceable(128) %0, i1 noundef zeroext %1, ptr noundef %2) unnamed_addr #4 comdat align 2 personality ptr @__gxx_personality_v0 {
  %4 = alloca ptr, align 8
  %5 = alloca i8, align 1
  %6 = alloca ptr, align 8
  %7 = alloca ptr, align 8
  %8 = alloca i32, align 4
  store ptr %0, ptr %4, align 8, !tbaa !105
  %9 = zext i1 %1 to i8
  store i8 %9, ptr %5, align 1, !tbaa !96
  store ptr %2, ptr %6, align 8, !tbaa !117
  %10 = load ptr, ptr %4, align 8
  call void @_ZN21EmitCBaseVisitorConstC2Ev(ptr noundef nonnull align 8 dereferenceable(29) %10) #3
  store ptr getelementptr inbounds inrange(-16, 3792) ({ [476 x ptr] }, ptr @_ZTV21EmitVBaseVisitorConst, i32 0, i32 0, i32 2), ptr %10, align 8, !tbaa !13
  %11 = getelementptr inbounds nuw %class.EmitVBaseVisitorConst, ptr %10, i32 0, i32 1
  %12 = load i8, ptr %5, align 1, !tbaa !96, !range !97, !noundef !98
  %13 = trunc i8 %12 to i1
  %14 = zext i1 %13 to i8
  store i8 %14, ptr %11, align 1, !tbaa !119
  %15 = getelementptr inbounds nuw %class.EmitVBaseVisitorConst, ptr %10, i32 0, i32 2
  %16 = load ptr, ptr %6, align 8, !tbaa !117
  store ptr %16, ptr %15, align 8, !tbaa !129
  %17 = getelementptr inbounds nuw %class.EmitVBaseVisitorConst, ptr %10, i32 0, i32 3
  store i8 0, ptr %17, align 8, !tbaa !130
  %18 = getelementptr inbounds nuw %class.EmitVBaseVisitorConst, ptr %10, i32 0, i32 4
  store i8 0, ptr %18, align 1, !tbaa !131
  %19 = getelementptr inbounds nuw %class.EmitVBaseVisitorConst, ptr %10, i32 0, i32 5
  store i8 0, ptr %19, align 2, !tbaa !132
  %20 = getelementptr inbounds nuw %class.EmitVBaseVisitorConst, ptr %10, i32 0, i32 6
  invoke void @_ZNSt5dequeIP17AstNodeArrayDTypeSaIS1_EEC2Ev(ptr noundef nonnull align 8 dereferenceable(80) %20)
          to label %21 unwind label %22

21:                                               ; preds = %3
  ret void

22:                                               ; preds = %3
  %23 = landingpad { ptr, i32 }
          cleanup
  %24 = extractvalue { ptr, i32 } %23, 0
  store ptr %24, ptr %7, align 8
  %25 = extractvalue { ptr, i32 } %23, 1
  store i32 %25, ptr %8, align 4
  call void @_ZN14VNVisitorConstD2Ev(ptr noundef nonnull align 8 dereferenceable(29) %10) #3
  br label %26

26:                                               ; preds = %22
  %27 = load ptr, ptr %7, align 8
  %28 = load i32, ptr %8, align 4
  %29 = insertvalue { ptr, i32 } poison, ptr %27, 0
  %30 = insertvalue { ptr, i32 } %29, i32 %28, 1
  resume { ptr, i32 } %30
}

; Function Attrs: mustprogress uwtable
define linkonce_odr dso_local void @_ZN18EmitVStreamVisitorC2EPK7AstNodeRSo(ptr noundef nonnull align 8 dereferenceable(136) %0, ptr noundef %1, ptr noundef nonnull align 8 dereferenceable(8) %2) unnamed_addr #4 comdat align 2 personality ptr @__gxx_personality_v0 {
  %4 = alloca ptr, align 8
  %5 = alloca ptr, align 8
  %6 = alloca ptr, align 8
  %7 = alloca ptr, align 8
  %8 = alloca i32, align 4
  store ptr %0, ptr %4, align 8, !tbaa !11
  store ptr %1, ptr %5, align 8, !tbaa !4
  store ptr %2, ptr %6, align 8, !tbaa !9
  %9 = load ptr, ptr %4, align 8
  call void @_ZN21EmitVBaseVisitorConstC2EbP10AstSenTree(ptr noundef nonnull align 8 dereferenceable(128) %9, i1 noundef zeroext false, ptr noundef null)
  store ptr getelementptr inbounds inrange(-16, 3792) ({ [476 x ptr] }, ptr @_ZTV18EmitVStreamVisitor, i32 0, i32 0, i32 2), ptr %9, align 8, !tbaa !13
  %10 = getelementptr inbounds nuw %class.EmitVStreamVisitor, ptr %9, i32 0, i32 1
  %11 = load ptr, ptr %6, align 8, !tbaa !9
  store ptr %11, ptr %10, align 8, !tbaa !9
  %12 = load ptr, ptr %5, align 8, !tbaa !4
  invoke void @_ZN14VNVisitorConst12iterateConstEP7AstNode(ptr noundef nonnull align 8 dereferenceable(8) %9, ptr noundef %12)
          to label %13 unwind label %14

13:                                               ; preds = %3
  ret void

14:                                               ; preds = %3
  %15 = landingpad { ptr, i32 }
          cleanup
  %16 = extractvalue { ptr, i32 } %15, 0
  store ptr %16, ptr %7, align 8
  %17 = extractvalue { ptr, i32 } %15, 1
  store i32 %17, ptr %8, align 4
  call void @_ZN21EmitVBaseVisitorConstD2Ev(ptr noundef nonnull align 8 dereferenceable(128) %9) #3
  br label %18

18:                                               ; preds = %14
  %19 = load ptr, ptr %7, align 8
  %20 = load i32, ptr %8, align 4
  %21 = insertvalue { ptr, i32 } poison, ptr %19, 0
  %22 = insertvalue { ptr, i32 } %21, i32 %20, 1
  resume { ptr, i32 } %22
}

; Function Attrs: mustprogress uwtable
define dso_local void @_ZN7V3EmitV14verilogForTreeEPK7AstNodeRSo(ptr noundef %0, ptr noundef nonnull align 8 dereferenceable(8) %1) #4 align 2 {
  %3 = alloca ptr, align 8
  %4 = alloca ptr, align 8
  %5 = alloca %class.EmitVStreamVisitor, align 8
  store ptr %0, ptr %3, align 8, !tbaa !4
  store ptr %1, ptr %4, align 8, !tbaa !9
  %6 = load ptr, ptr %3, align 8, !tbaa !4
  %7 = load ptr, ptr %4, align 8, !tbaa !9
  call void @_ZN18EmitVStreamVisitorC2EPK7AstNodeRSo(ptr noundef nonnull align 8 dereferenceable(136) %5, ptr noundef %6, ptr noundef nonnull align 8 dereferenceable(8) %7)
  call void @_ZN21EmitVBaseVisitorConstD2Ev(ptr noundef nonnull align 8 dereferenceable(136) %5) #3
  ret void
}