; Function Attrs: mustprogress uwtable
define dso_local void @_ZN7V3EmitV14verilogForTreeEPK7AstNodeRSo(ptr noundef %0, ptr noundef nonnull align 8 dereferenceable(8) %1) local_unnamed_addr #3 align 2 personality ptr @__gxx_personality_v0 {
  %3 = alloca %class.EmitVStreamVisitor, align 8
  %4 = getelementptr inbounds nuw i8, ptr %3, i64 8
  call void @llvm.memset.p0.i64(ptr noundef nonnull align 8 dereferenceable(21) %4, i8 0, i64 21, i1 false)
  store ptr getelementptr inbounds nuw inrange(-16, 3792) (i8, ptr @_ZTV21EmitVBaseVisitorConst, i64 16), ptr %3, align 8, !tbaa !4
  %5 = getelementptr inbounds nuw i8, ptr %3, i64 29
  store i8 0, ptr %5, align 1, !tbaa !7
  %6 = getelementptr inbounds nuw i8, ptr %3, i64 32
  %7 = getelementptr inbounds nuw i8, ptr %3, i64 48
  call void @llvm.memset.p0.i64(ptr noundef nonnull align 8 dereferenceable(80) %7, i8 0, i64 80, i1 false)
  call void @llvm.memset.p0.i64(ptr noundef nonnull align 8 dereferenceable(11) %6, i8 0, i64 11, i1 false)
  call void @_ZNSt11_Deque_baseIP17AstNodeArrayDTypeSaIS1_EE17_M_initialize_mapEm(ptr noundef nonnull align 8 dereferenceable(80) %7, i64 noundef 0)
  store ptr getelementptr inbounds nuw inrange(-16, 3792) (i8, ptr @_ZTV18EmitVStreamVisitor, i64 16), ptr %3, align 8, !tbaa !4
  %8 = getelementptr inbounds nuw i8, ptr %3, i64 128
  store ptr %1, ptr %8, align 8, !tbaa !28
  %9 = load ptr, ptr %0, align 8, !tbaa !4
  %10 = getelementptr inbounds nuw i8, ptr %9, i64 288
  %11 = load ptr, ptr %10, align 8
  invoke void %11(ptr noundef nonnull align 8 dereferenceable(152) %0, ptr noundef nonnull align 8 dereferenceable(136) %3)
          to label %_ZN18EmitVStreamVisitorC2EPK7AstNodeRSo.exit unwind label %12

12:                                               ; preds = %2
  %13 = landingpad { ptr, i32 }
          cleanup
  call void @_ZN21EmitVBaseVisitorConstD2Ev(ptr noundef nonnull align 8 dereferenceable(136) %3) #22
  resume { ptr, i32 } %13

_ZN18EmitVStreamVisitorC2EPK7AstNodeRSo.exit:     ; preds = %2
  store ptr getelementptr inbounds nuw inrange(-16, 3792) (i8, ptr @_ZTV21EmitVBaseVisitorConst, i64 16), ptr %3, align 8, !tbaa !4
  %14 = load ptr, ptr %7, align 8, !tbaa !30
  %.not.i.i.i = icmp eq ptr %14, null
  br i1 %.not.i.i.i, label %_ZN21EmitVBaseVisitorConstD2Ev.exit, label %15

15:                                               ; preds = %_ZN18EmitVStreamVisitorC2EPK7AstNodeRSo.exit
  %16 = getelementptr inbounds nuw i8, ptr %3, i64 120
  %17 = getelementptr inbounds nuw i8, ptr %3, i64 88
  %18 = load ptr, ptr %17, align 8, !tbaa !31
  %19 = load ptr, ptr %16, align 8, !tbaa !32
  %20 = getelementptr inbounds nuw i8, ptr %19, i64 8
  %21 = icmp ult ptr %18, %20
  br i1 %21, label %.lr.ph.i.i.i.i, label %_ZNSt11_Deque_baseIP17AstNodeArrayDTypeSaIS1_EE16_M_destroy_nodesEPPS1_S5_.exit.i.i.i

.lr.ph.i.i.i.i:                                   ; preds = %15, %.lr.ph.i.i.i.i
  %.06.i.i.i.i = phi ptr [ %23, %.lr.ph.i.i.i.i ], [ %18, %15 ]
  %22 = load ptr, ptr %.06.i.i.i.i, align 8, !tbaa !33
  call void @_ZdlPvm(ptr noundef %22, i64 noundef 512) #23
  %23 = getelementptr inbounds nuw i8, ptr %.06.i.i.i.i, i64 8
  %24 = icmp ult ptr %.06.i.i.i.i, %19
  br i1 %24, label %.lr.ph.i.i.i.i, label %_ZNSt11_Deque_baseIP17AstNodeArrayDTypeSaIS1_EE16_M_destroy_nodesEPPS1_S5_.exit.loopexit.i.i.i, !llvm.loop !34

_ZNSt11_Deque_baseIP17AstNodeArrayDTypeSaIS1_EE16_M_destroy_nodesEPPS1_S5_.exit.loopexit.i.i.i: ; preds = %.lr.ph.i.i.i.i
  %.pre.i.i.i = load ptr, ptr %7, align 8, !tbaa !30
  br label %_ZNSt11_Deque_baseIP17AstNodeArrayDTypeSaIS1_EE16_M_destroy_nodesEPPS1_S5_.exit.i.i.i

_ZNSt11_Deque_baseIP17AstNodeArrayDTypeSaIS1_EE16_M_destroy_nodesEPPS1_S5_.exit.i.i.i: ; preds = %_ZNSt11_Deque_baseIP17AstNodeArrayDTypeSaIS1_EE16_M_destroy_nodesEPPS1_S5_.exit.loopexit.i.i.i, %15
  %25 = phi ptr [ %.pre.i.i.i, %_ZNSt11_Deque_baseIP17AstNodeArrayDTypeSaIS1_EE16_M_destroy_nodesEPPS1_S5_.exit.loopexit.i.i.i ], [ %14, %15 ]
  %26 = getelementptr inbounds nuw i8, ptr %3, i64 56
  %27 = load i64, ptr %26, align 8, !tbaa !36
  %28 = shl i64 %27, 3
  call void @_ZdlPvm(ptr noundef %25, i64 noundef %28) #23
  br label %_ZN21EmitVBaseVisitorConstD2Ev.exit

_ZN21EmitVBaseVisitorConstD2Ev.exit:              ; preds = %_ZN18EmitVStreamVisitorC2EPK7AstNodeRSo.exit, %_ZNSt11_Deque_baseIP17AstNodeArrayDTypeSaIS1_EE16_M_destroy_nodesEPPS1_S5_.exit.i.i.i
  ret void
}